;
; Definition file of nakama-sdk.dll
; Automatic generated by gendef 1.1
; written by Kai Tietz 2008
; The def file has to be processed by --kill-at (-k) option of dlltool or ld
;
LIBRARY "nakama-sdk.dll"
EXPORTS
??0NClientInterface@Nakama@@QEAA@AEBV01@@Z
??0NClientInterface@Nakama@@QEAA@XZ
??0NConsoleLogSink@Nakama@@QEAA@AEBV01@@Z
??0NConsoleLogSink@Nakama@@QEAA@XZ
??0NLogSinkInterface@Nakama@@QEAA@AEBV01@@Z
??0NLogSinkInterface@Nakama@@QEAA@XZ
??0NRtClientInterface@Nakama@@QEAA@AEBV01@@Z
??0NRtClientInterface@Nakama@@QEAA@XZ
??0NSessionInterface@Nakama@@QEAA@AEBV01@@Z
??0NSessionInterface@Nakama@@QEAA@XZ
??0SClientInterface@Satori@@QEAA@AEBV01@@Z
??0SClientInterface@Satori@@QEAA@XZ
??1NClientInterface@Nakama@@UEAA@XZ
??1NConsoleLogSink@Nakama@@UEAA@XZ
??1NLogSinkInterface@Nakama@@UEAA@XZ
??1NRtClientInterface@Nakama@@UEAA@XZ
??1NSessionInterface@Nakama@@UEAA@XZ
??1SClientInterface@Satori@@UEAA@XZ
??4NClientInterface@Nakama@@QEAAAEAV01@AEBV01@@Z
??4NConsoleLogSink@Nakama@@QEAAAEAV01@AEBV01@@Z
??4NLogSinkInterface@Nakama@@QEAAAEAV01@AEBV01@@Z
??4NRtClientInterface@Nakama@@QEAAAEAV01@AEBV01@@Z
??4NSessionInterface@Nakama@@QEAAAEAV01@AEBV01@@Z
??4SClientInterface@Satori@@QEAAAEAV01@AEBV01@@Z
??_7NClientInterface@Nakama@@6B@ DATA
??_7NConsoleLogSink@Nakama@@6B@ DATA
??_7NLogSinkInterface@Nakama@@6B@ DATA
??_7NRtClientInterface@Nakama@@6B@ DATA
??_7NSessionInterface@Nakama@@6B@ DATA
??_7SClientInterface@Satori@@6B@ DATA
?Debug@NLogger@Nakama@@SAXAEBV?$basic_string@DU?$char_traits@D@std@@V?$allocator@D@2@@std@@PEBD1@Z
?Error@NLogger@Nakama@@SAXAEBUNError@2@PEBD1@Z
?Error@NLogger@Nakama@@SAXAEBUNRtError@2@PEBD1@Z
?Error@NLogger@Nakama@@SAXAEBV?$basic_string@DU?$char_traits@D@std@@V?$allocator@D@2@@std@@PEBD1@Z
?Fatal@NLogger@Nakama@@SAXAEBV?$basic_string@DU?$char_traits@D@std@@V?$allocator@D@2@@std@@PEBD1@Z
?Format@NLogger@Nakama@@SAXW4NLogLevel@2@PEBD11ZZ
?Info@NLogger@Nakama@@SAXAEBV?$basic_string@DU?$char_traits@D@std@@V?$allocator@D@2@@std@@PEBD1@Z
?Log@NLogger@Nakama@@SAXW4NLogLevel@2@AEBV?$basic_string@DU?$char_traits@D@std@@V?$allocator@D@2@@std@@PEBD2@Z
?Warn@NLogger@Nakama@@SAXAEBV?$basic_string@DU?$char_traits@D@std@@V?$allocator@D@2@@std@@PEBD1@Z
?createDefaultClient@Nakama@@YA?AV?$shared_ptr@VNClientInterface@Nakama@@@std@@AEBUNClientParameters@1@@Z
?createDefaultHttpTransport@Nakama@@YA?AV?$shared_ptr@VNHttpTransportInterface@Nakama@@@std@@AEBUNPlatformParameters@1@@Z
?createDefaultWebsocket@Nakama@@YA?AV?$shared_ptr@VNRtTransportInterface@Nakama@@@std@@AEBUNPlatformParameters@1@@Z
?createRestClient@Nakama@@YA?AV?$shared_ptr@VNClientInterface@Nakama@@@std@@AEBUNClientParameters@1@V?$shared_ptr@VNHttpTransportInterface@Nakama@@@3@@Z
?createRestClient@Satori@@YA?AV?$shared_ptr@VSClientInterface@Satori@@@std@@AEBUNClientParameters@Nakama@@V?$shared_ptr@VNHttpTransportInterface@Nakama@@@3@@Z
?flush@NConsoleLogSink@Nakama@@UEAAXXZ
?getLevel@NLogSinkInterface@Nakama@@QEBA?AW4NLogLevel@2@XZ
?getNakamaSdkVersion@Nakama@@YAPEBDXZ
?getSink@NLogger@Nakama@@SA?AV?$shared_ptr@VNLogSinkInterface@Nakama@@@std@@XZ
?getUnixTimestampMs@Nakama@@YA_KXZ
?init@NLogger@Nakama@@SAXV?$shared_ptr@VNLogSinkInterface@Nakama@@@std@@W4NLogLevel@2@@Z
?initWithConsoleSink@NLogger@Nakama@@SAXW4NLogLevel@2@@Z
?log@NConsoleLogSink@Nakama@@UEAAXW4NLogLevel@2@AEBV?$basic_string@DU?$char_traits@D@std@@V?$allocator@D@2@@std@@PEBD@Z
?restoreSession@Nakama@@YA?AV?$shared_ptr@VNSessionInterface@Nakama@@@std@@AEBV?$basic_string@DU?$char_traits@D@std@@V?$allocator@D@2@@3@0@Z
?setLevel@NLogSinkInterface@Nakama@@QEAAXW4NLogLevel@2@@Z
?setLevel@NLogger@Nakama@@SAXW4NLogLevel@2@@Z
?setSink@NLogger@Nakama@@SAXV?$shared_ptr@VNLogSinkInterface@Nakama@@@std@@@Z
?toString@Nakama@@YA?AV?$basic_string@DU?$char_traits@D@std@@V?$allocator@D@2@@std@@AEBUNError@1@@Z
?toString@Nakama@@YA?AV?$basic_string@DU?$char_traits@D@std@@V?$allocator@D@2@@std@@AEBUNRtError@1@@Z
?toString@Nakama@@YAPEBDW4ErrorCode@1@@Z
?toString@Nakama@@YAPEBDW4RtErrorCode@1@@Z
?vFormat@NLogger@Nakama@@SAXW4NLogLevel@2@PEBD11PEAD@Z
